target datalayout = "e-m:e-p270:32:32-p271:32:32-p272:64:64-i64:64-i128:128-f80:128-n8:16:32:64-S128"
target triple = "x86_64-pc-linux-gnu"

%struct.diag_stats = type { i32, i32, i32, i32, i32, i32, i32, [6 x i32], i32, i32, i32, i32, i32, i32, i32, i32, i32, i32, i32, i32, i32, i32, i32, i32, i64, i32, i32, [6 x i32], i32, i32, i32, i32, i32, i32, i64, i32 }

@last_proc_req_start = external global i64, align 8
@slurmctld_diag_stats = external global %struct.diag_stats, align 8

; Function Attrs: nounwind uwtable
define dso_local void @reset_stats(i32 noundef %0) #0 {
  %2 = alloca i32, align 4
  store i32 %0, ptr %2, align 4
  store i32 0, ptr getelementptr inbounds nuw (%struct.diag_stats, ptr @slurmctld_diag_stats, i32 0, i32 1), align 4
  store i32 0, ptr @slurmctld_diag_stats, align 8
  store i32 0, ptr getelementptr inbounds nuw (%struct.diag_stats, ptr @slurmctld_diag_stats, i32 0, i32 2), align 8
  store i32 0, ptr getelementptr inbounds nuw (%struct.diag_stats, ptr @slurmctld_diag_stats, i32 0, i32 4), align 8
  store i32 0, ptr getelementptr inbounds nuw (%struct.diag_stats, ptr @slurmctld_diag_stats, i32 0, i32 5), align 4
  store i32 0, ptr getelementptr inbounds nuw (%struct.diag_stats, ptr @slurmctld_diag_stats, i32 0, i32 6), align 8
  store i32 0, ptr getelementptr inbounds nuw (%struct.diag_stats, ptr @slurmctld_diag_stats, i32 0, i32 9), align 8
  store i32 0, ptr getelementptr inbounds nuw (%struct.diag_stats, ptr @slurmctld_diag_stats, i32 0, i32 10), align 4
  store i32 0, ptr getelementptr inbounds nuw (%struct.diag_stats, ptr @slurmctld_diag_stats, i32 0, i32 11), align 8
  store i32 0, ptr getelementptr inbounds nuw (%struct.diag_stats, ptr @slurmctld_diag_stats, i32 0, i32 12), align 4
  store i32 0, ptr getelementptr inbounds nuw (%struct.diag_stats, ptr @slurmctld_diag_stats, i32 0, i32 13), align 8
  call void @llvm.memset.p0.i64(ptr align 4 getelementptr inbounds nuw (%struct.diag_stats, ptr @slurmctld_diag_stats, i32 0, i32 7), i8 0, i64 24, i1 false)
  %3 = load i32, ptr %2, align 4
  %4 = icmp ne i32 %3, 0
  br i1 %4, label %5, label %6

5:                                                ; preds = %1
  store i32 0, ptr getelementptr inbounds nuw (%struct.diag_stats, ptr @slurmctld_diag_stats, i32 0, i32 17), align 8
  br label %6

6:                                                ; preds = %5, %1
  store i32 0, ptr getelementptr inbounds nuw (%struct.diag_stats, ptr @slurmctld_diag_stats, i32 0, i32 18), align 4
  store i32 0, ptr getelementptr inbounds nuw (%struct.diag_stats, ptr @slurmctld_diag_stats, i32 0, i32 19), align 8
  store i32 0, ptr getelementptr inbounds nuw (%struct.diag_stats, ptr @slurmctld_diag_stats, i32 0, i32 21), align 8
  store i64 0, ptr getelementptr inbounds nuw (%struct.diag_stats, ptr @slurmctld_diag_stats, i32 0, i32 24), align 8
  store i32 0, ptr getelementptr inbounds nuw (%struct.diag_stats, ptr @slurmctld_diag_stats, i32 0, i32 22), align 4
  store i32 0, ptr getelementptr inbounds nuw (%struct.diag_stats, ptr @slurmctld_diag_stats, i32 0, i32 25), align 8
  store i32 0, ptr getelementptr inbounds nuw (%struct.diag_stats, ptr @slurmctld_diag_stats, i32 0, i32 26), align 4
  store i32 0, ptr getelementptr inbounds nuw (%struct.diag_stats, ptr @slurmctld_diag_stats, i32 0, i32 30), align 8
  store i32 0, ptr getelementptr inbounds nuw (%struct.diag_stats, ptr @slurmctld_diag_stats, i32 0, i32 31), align 4
  store i32 0, ptr getelementptr inbounds nuw (%struct.diag_stats, ptr @slurmctld_diag_stats, i32 0, i32 33), align 4
  store i32 0, ptr getelementptr inbounds nuw (%struct.diag_stats, ptr @slurmctld_diag_stats, i32 0, i32 23), align 8
  store i32 0, ptr getelementptr inbounds nuw (%struct.diag_stats, ptr @slurmctld_diag_stats, i32 0, i32 28), align 8
  store i32 0, ptr getelementptr inbounds nuw (%struct.diag_stats, ptr @slurmctld_diag_stats, i32 0, i32 29), align 4
  call void @llvm.memset.p0.i64(ptr align 8 getelementptr inbounds nuw (%struct.diag_stats, ptr @slurmctld_diag_stats, i32 0, i32 27), i8 0, i64 24, i1 false)
  %7 = call i64 @time(ptr noundef null) #7
  store i64 %7, ptr @last_proc_req_start, align 8
  ret void
}