; Function Attrs: nounwind uwtable
define dso_local void @reset_stats(i32 noundef %0) local_unnamed_addr #0 {
  store i32 0, ptr getelementptr inbounds nuw (i8, ptr @slurmctld_diag_stats, i64 4), align 4
  store i32 0, ptr @slurmctld_diag_stats, align 8
  store i32 0, ptr getelementptr inbounds nuw (i8, ptr @slurmctld_diag_stats, i64 8), align 8
  %.not = icmp eq i32 %0, 0
  tail call void @llvm.memset.p0.i64(ptr noundef nonnull align 8 dereferenceable(36) getelementptr inbounds nuw (i8, ptr @slurmctld_diag_stats, i64 16), i8 0, i64 36, i1 false)
  tail call void @llvm.memset.p0.i64(ptr noundef nonnull align 8 dereferenceable(20) getelementptr inbounds nuw (i8, ptr @slurmctld_diag_stats, i64 56), i8 0, i64 20, i1 false)
  br i1 %.not, label %3, label %2

2:                                                ; preds = %1
  store i32 0, ptr getelementptr inbounds nuw (i8, ptr @slurmctld_diag_stats, i64 88), align 8
  br label %3

3:                                                ; preds = %2, %1
  store i32 0, ptr getelementptr inbounds nuw (i8, ptr @slurmctld_diag_stats, i64 92), align 4
  store i32 0, ptr getelementptr inbounds nuw (i8, ptr @slurmctld_diag_stats, i64 96), align 8
  store i32 0, ptr getelementptr inbounds nuw (i8, ptr @slurmctld_diag_stats, i64 104), align 8
  store i32 0, ptr getelementptr inbounds nuw (i8, ptr @slurmctld_diag_stats, i64 108), align 4
  store i32 0, ptr getelementptr inbounds nuw (i8, ptr @slurmctld_diag_stats, i64 180), align 4
  store i32 0, ptr getelementptr inbounds nuw (i8, ptr @slurmctld_diag_stats, i64 112), align 8
  tail call void @llvm.memset.p0.i64(ptr noundef nonnull align 8 dereferenceable(56) getelementptr inbounds nuw (i8, ptr @slurmctld_diag_stats, i64 120), i8 0, i64 56, i1 false)
  %4 = tail call i64 @time(ptr noundef null) #7
  store i64 %4, ptr @last_proc_req_start, align 8
  ret void
}